; Function Attrs: null_pointer_is_valid sspstrong uwtable
define internal i32 @dissect_h245_OLC_ack_fw_lcn(ptr noundef %0, i32 noundef %1, ptr noundef %2, ptr noundef %3, i32 noundef %4) #1 {
  %6 = alloca i32, align 4
  call void @llvm.lifetime.start.p0(i64 4, ptr nonnull %6) #13
  %7 = call i32 @dissect_per_constrained_integer(ptr noundef %0, i32 noundef %1, ptr noundef %2, ptr noundef %3, i32 noundef %4, i32 noundef 1, i32 noundef 65535, ptr noundef nonnull %6, i1 noundef zeroext false)
  %8 = load i32, ptr %6, align 4
  %9 = trunc i32 %8 to i16
  %10 = and i16 %9, 4095
  call void @llvm.lifetime.end.p0(i64 4, ptr nonnull %6) #13
  %11 = load ptr, ptr @upcoming_olc, align 8
  %.not = icmp eq ptr %11, null
  br i1 %.not, label %13, label %12

12:                                               ; preds = %5
  store i16 %10, ptr %11, align 8
  br label %13

13:                                               ; preds = %12, %5
  store i16 %10, ptr @h223_fw_lc_num, align 2
  ret i32 %7
}